; Function Attrs: mustprogress nofree norecurse nosync nounwind willreturn memory(argmem: read) uwtable
define dso_local range(i32 0, 2) i32 @eval_nodes_topo_weight_find(ptr noundef readonly captures(none) %0, ptr noundef readonly captures(none) %1) local_unnamed_addr #4 {
  %3 = getelementptr inbounds nuw i8, ptr %0, i64 16
  %4 = load i64, ptr %3, align 8
  %5 = getelementptr inbounds nuw i8, ptr %1, i64 16
  %6 = load i64, ptr %5, align 8
  %7 = icmp eq i64 %4, %6
  %. = zext i1 %7 to i32
  ret i32 %.
}